target datalayout = "e-m:e-p270:32:32-p271:32:32-p272:64:64-i64:64-i128:128-f80:128-n8:16:32:64-S128"
target triple = "x86_64-pc-linux-gnu"

%struct._zend_executor_globals = type { %struct._zval_struct, %struct._zval_struct, [32 x ptr], ptr, ptr, %struct._zend_array, %struct._zend_array, ptr, i32, i32, ptr, ptr, ptr, ptr, ptr, ptr, i64, ptr, ptr, i32, i32, i64, i32, i32, i32, i8, i8, %struct.zend_atomic_bool_s, %struct.zend_atomic_bool_s, ptr, i64, ptr, ptr, %struct._zend_array, %struct._zend_array, i32, i8, %struct._zval_struct, %struct._zval_struct, %struct._zend_stack, %struct._zend_stack, %struct._zend_stack, ptr, i32, i32, i64, ptr, ptr, ptr, %struct._zend_objects_store, ptr, ptr, ptr, [3 x %struct._zend_op], ptr, i8, i8, i64, i32, i32, ptr, [16 x %struct._HashTableIterator], ptr, %union._zend_function, %struct._zend_op, %struct._zend_array, i64, %struct.zend_get_gc_buffer, ptr, ptr, ptr, i64, i8, i32, ptr, ptr, i64, %struct._zend_call_stack, i64, i64, [6 x ptr] }
%struct.zend_atomic_bool_s = type { i8 }
%struct._zval_struct = type { %union._zend_value, %union.anon, %union.anon.2 }
%union._zend_value = type { i64 }
%union.anon = type { i32 }
%union.anon.2 = type { i32 }
%struct._zend_stack = type { i32, i32, i32, ptr }
%struct._zend_objects_store = type { ptr, i32, i32, i32 }
%struct._HashTableIterator = type { ptr, i32, i32 }
%union._zend_function = type { %struct._zend_op_array }
%struct._zend_op_array = type { i8, [3 x i8], i32, ptr, ptr, ptr, i32, i32, ptr, ptr, ptr, ptr, i32, i32, i32, i32, ptr, ptr, ptr, ptr, ptr, i32, i32, ptr, ptr, ptr, i32, i32, i32, i32, ptr, ptr, [6 x ptr] }
%struct._zend_op = type { ptr, %union._znode_op, %union._znode_op, %union._znode_op, i32, i32, i8, i8, i8, i8 }
%union._znode_op = type { i32 }
%struct._zend_array = type { %struct._zend_refcounted_h, %union.anon.5, i32, %union.anon.7, i32, i32, i32, i32, i64, ptr }
%struct._zend_refcounted_h = type { i32, %union.anon.3 }
%union.anon.3 = type { i32 }
%union.anon.5 = type { i32 }
%union.anon.7 = type { ptr }
%struct.zend_get_gc_buffer = type { ptr, ptr, ptr }
%struct._zend_call_stack = type { ptr, i64 }
%struct._zend_object_iterator_funcs = type { ptr, ptr, ptr, ptr, ptr, ptr, ptr, ptr }
%struct._zend_object = type { %struct._zend_refcounted_h, i32, ptr, ptr, ptr, [1 x %struct._zval_struct] }
%struct._zend_object_iterator = type { %struct._zend_object, %struct._zval_struct, ptr, i64 }
%struct._zend_execute_data = type { ptr, ptr, ptr, ptr, %struct._zval_struct, ptr, ptr, ptr, ptr }
%struct.zend_internal_iterator = type { %struct._zend_object, ptr, i8 }

@executor_globals = external global %struct._zend_executor_globals, align 8
@.str.8 = private unnamed_addr constant [62 x i8] c"The InternalIterator object has not been properly initialized\00", align 1

; Function Attrs: nounwind uwtable
define internal i32 @zend_internal_iterator_ensure_rewound(ptr noundef %0) #0 {
  %2 = alloca i32, align 4
  %3 = alloca ptr, align 8
  %4 = alloca ptr, align 8
  store ptr %0, ptr %3, align 8
  %5 = load ptr, ptr %3, align 8
  %6 = getelementptr inbounds %struct.zend_internal_iterator, ptr %5, i32 0, i32 2
  %7 = load i8, ptr %6, align 8
  %8 = trunc i8 %7 to i1
  br i1 %8, label %38, label %9

9:                                                ; preds = %1
  %10 = load ptr, ptr %3, align 8
  %11 = getelementptr inbounds %struct.zend_internal_iterator, ptr %10, i32 0, i32 1
  %12 = load ptr, ptr %11, align 8
  store ptr %12, ptr %4, align 8
  %13 = load ptr, ptr %3, align 8
  %14 = getelementptr inbounds %struct.zend_internal_iterator, ptr %13, i32 0, i32 2
  store i8 1, ptr %14, align 8
  %15 = load ptr, ptr %4, align 8
  %16 = getelementptr inbounds %struct._zend_object_iterator, ptr %15, i32 0, i32 2
  %17 = load ptr, ptr %16, align 8
  %18 = getelementptr inbounds %struct._zend_object_iterator_funcs, ptr %17, i32 0, i32 5
  %19 = load ptr, ptr %18, align 8
  %20 = icmp ne ptr %19, null
  br i1 %20, label %21, label %37

21:                                               ; preds = %9
  %22 = load ptr, ptr %4, align 8
  %23 = getelementptr inbounds %struct._zend_object_iterator, ptr %22, i32 0, i32 2
  %24 = load ptr, ptr %23, align 8
  %25 = getelementptr inbounds %struct._zend_object_iterator_funcs, ptr %24, i32 0, i32 5
  %26 = load ptr, ptr %25, align 8
  %27 = load ptr, ptr %4, align 8
  call void %26(ptr noundef %27)
  %28 = load ptr, ptr getelementptr inbounds (%struct._zend_executor_globals, ptr @executor_globals, i32 0, i32 50), align 8
  %29 = icmp ne ptr %28, null
  %30 = xor i1 %29, true
  %31 = xor i1 %30, true
  %32 = zext i1 %31 to i32
  %33 = sext i32 %32 to i64
  %34 = icmp ne i64 %33, 0
  br i1 %34, label %35, label %36

35:                                               ; preds = %21
  store i32 -1, ptr %2, align 4
  br label %39

36:                                               ; preds = %21
  br label %37

37:                                               ; preds = %36, %9
  br label %38

38:                                               ; preds = %37, %1
  store i32 0, ptr %2, align 4
  br label %39

39:                                               ; preds = %38, %35
  %40 = load i32, ptr %2, align 4
  ret i32 %40
}

; Function Attrs: nounwind uwtable
define internal ptr @zend_internal_iterator_fetch(ptr noundef %0) #0 {
  %2 = alloca ptr, align 8
  %3 = alloca ptr, align 8
  %4 = alloca ptr, align 8
  store ptr %0, ptr %3, align 8
  %5 = load ptr, ptr %3, align 8
  %6 = getelementptr inbounds %struct._zval_struct, ptr %5, i32 0, i32 0
  %7 = load ptr, ptr %6, align 8
  store ptr %7, ptr %4, align 8
  %8 = load ptr, ptr %4, align 8
  %9 = getelementptr inbounds %struct.zend_internal_iterator, ptr %8, i32 0, i32 1
  %10 = load ptr, ptr %9, align 8
  %11 = icmp ne ptr %10, null
  br i1 %11, label %13, label %12

12:                                               ; preds = %1
  call void (ptr, ptr, ...) @zend_throw_error(ptr noundef null, ptr noundef @.str.8)
  store ptr null, ptr %2, align 8
  br label %15

13:                                               ; preds = %1
  %14 = load ptr, ptr %4, align 8
  store ptr %14, ptr %2, align 8
  br label %15

15:                                               ; preds = %13, %12
  %16 = load ptr, ptr %2, align 8
  ret ptr %16
}

; Function Attrs: nounwind uwtable
define hidden void @zim_InternalIterator_key(ptr noundef %0, ptr noundef %1) #0 {
  %3 = alloca ptr, align 8
  %4 = alloca ptr, align 8
  %5 = alloca ptr, align 8
  %6 = alloca ptr, align 8
  store ptr %0, ptr %3, align 8
  store ptr %1, ptr %4, align 8
  br label %7

7:                                                ; preds = %2
  %8 = load ptr, ptr %3, align 8
  %9 = getelementptr inbounds %struct._zend_execute_data, ptr %8, i32 0, i32 4
  %10 = getelementptr inbounds %struct._zval_struct, ptr %9, i32 0, i32 2
  %11 = load i32, ptr %10, align 4
  %12 = icmp ne i32 %11, 0
  %13 = xor i1 %12, true
  %14 = xor i1 %13, true
  %15 = zext i1 %14 to i32
  %16 = sext i32 %15 to i64
  %17 = icmp ne i64 %16, 0
  br i1 %17, label %18, label %19

18:                                               ; preds = %7
  call void @zend_wrong_parameters_none_error()
  br label %76

19:                                               ; preds = %7
  br label %20

20:                                               ; preds = %19
  %21 = load ptr, ptr %3, align 8
  %22 = getelementptr inbounds %struct._zend_execute_data, ptr %21, i32 0, i32 4
  %23 = call ptr @zend_internal_iterator_fetch(ptr noundef %22)
  store ptr %23, ptr %5, align 8
  %24 = load ptr, ptr %5, align 8
  %25 = icmp ne ptr %24, null
  br i1 %25, label %31, label %26

26:                                               ; preds = %20
  br label %27

27:                                               ; preds = %26
  %28 = load ptr, ptr getelementptr inbounds (%struct._zend_executor_globals, ptr @executor_globals, i32 0, i32 50), align 8
  %29 = icmp ne ptr %28, null
  call void @llvm.assume(i1 %29)
  br label %76

30:                                               ; No predecessors!
  br label %31

31:                                               ; preds = %30, %20
  %32 = load ptr, ptr %5, align 8
  %33 = call i32 @zend_internal_iterator_ensure_rewound(ptr noundef %32)
  %34 = icmp eq i32 %33, -1
  br i1 %34, label %35, label %40

35:                                               ; preds = %31
  br label %36

36:                                               ; preds = %35
  %37 = load ptr, ptr getelementptr inbounds (%struct._zend_executor_globals, ptr @executor_globals, i32 0, i32 50), align 8
  %38 = icmp ne ptr %37, null
  call void @llvm.assume(i1 %38)
  br label %76

39:                                               ; No predecessors!
  br label %40

40:                                               ; preds = %39, %31
  %41 = load ptr, ptr %5, align 8
  %42 = getelementptr inbounds %struct.zend_internal_iterator, ptr %41, i32 0, i32 1
  %43 = load ptr, ptr %42, align 8
  %44 = getelementptr inbounds %struct._zend_object_iterator, ptr %43, i32 0, i32 2
  %45 = load ptr, ptr %44, align 8
  %46 = getelementptr inbounds %struct._zend_object_iterator_funcs, ptr %45, i32 0, i32 3
  %47 = load ptr, ptr %46, align 8
  %48 = icmp ne ptr %47, null
  br i1 %48, label %49, label %61

49:                                               ; preds = %40
  %50 = load ptr, ptr %5, align 8
  %51 = getelementptr inbounds %struct.zend_internal_iterator, ptr %50, i32 0, i32 1
  %52 = load ptr, ptr %51, align 8
  %53 = getelementptr inbounds %struct._zend_object_iterator, ptr %52, i32 0, i32 2
  %54 = load ptr, ptr %53, align 8
  %55 = getelementptr inbounds %struct._zend_object_iterator_funcs, ptr %54, i32 0, i32 3
  %56 = load ptr, ptr %55, align 8
  %57 = load ptr, ptr %5, align 8
  %58 = getelementptr inbounds %struct.zend_internal_iterator, ptr %57, i32 0, i32 1
  %59 = load ptr, ptr %58, align 8
  %60 = load ptr, ptr %4, align 8
  call void %56(ptr noundef %59, ptr noundef %60)
  br label %76

61:                                               ; preds = %40
  br label %62

62:                                               ; preds = %61
  br label %63

63:                                               ; preds = %62
  %64 = load ptr, ptr %4, align 8
  store ptr %64, ptr %6, align 8
  %65 = load ptr, ptr %5, align 8
  %66 = getelementptr inbounds %struct.zend_internal_iterator, ptr %65, i32 0, i32 1
  %67 = load ptr, ptr %66, align 8
  %68 = getelementptr inbounds %struct._zend_object_iterator, ptr %67, i32 0, i32 3
  %69 = load i64, ptr %68, align 8
  %70 = load ptr, ptr %6, align 8
  %71 = getelementptr inbounds %struct._zval_struct, ptr %70, i32 0, i32 0
  store i64 %69, ptr %71, align 8
  %72 = load ptr, ptr %6, align 8
  %73 = getelementptr inbounds %struct._zval_struct, ptr %72, i32 0, i32 1
  store i32 4, ptr %73, align 8
  br label %74

74:                                               ; preds = %63
  br label %76

75:                                               ; No predecessors!
  br label %76

76:                                               ; preds = %75, %74, %49, %36, %27, %18
  ret void
}